; Function Attrs: nounwind uwtable
define i32 @EVP_PKEY_CTX_set_dsa_paramgen_type(ptr noundef %0, ptr noundef %1) local_unnamed_addr #0 {
  %3 = alloca [2 x %struct.ossl_param_st], align 16
  %4 = alloca %struct.ossl_param_st, align 8
  call void @llvm.lifetime.start.p0(i64 80, ptr nonnull %3) #4
  %5 = icmp eq ptr %0, null
  br i1 %5, label %9, label %6

6:                                                ; preds = %2
  %7 = load i32, ptr %0, align 8, !tbaa !3
  %8 = and i32 %7, 6
  %.not.i = icmp eq i32 %8, 0
  br i1 %.not.i, label %9, label %10

9:                                                ; preds = %6, %2
  tail call void @ERR_new() #4
  tail call void @ERR_set_debug(ptr noundef nonnull @.str.7, i32 noundef 20, ptr noundef nonnull @__func__.dsa_paramgen_check) #4
  tail call void (i32, i32, ptr, ...) @ERR_set_error(i32 noundef 6, i32 noundef 147, ptr noundef null) #4
  br label %dsa_paramgen_check.exit.thread

10:                                               ; preds = %6
  %11 = getelementptr inbounds nuw i8, ptr %0, i64 120
  %12 = load ptr, ptr %11, align 8, !tbaa !19
  %.not6.i = icmp eq ptr %12, null
  br i1 %.not6.i, label %dsa_paramgen_check.exit, label %13

13:                                               ; preds = %10
  %14 = load i32, ptr %12, align 8, !tbaa !20
  %.not7.i = icmp eq i32 %14, 116
  br i1 %.not7.i, label %dsa_paramgen_check.exit, label %dsa_paramgen_check.exit.thread

dsa_paramgen_check.exit:                          ; preds = %13, %10
  %15 = getelementptr inbounds nuw i8, ptr %3, i64 40
  call void @OSSL_PARAM_construct_utf8_string(ptr dead_on_unwind nonnull writable sret(%struct.ossl_param_st) align 8 %3, ptr noundef nonnull @.str, ptr noundef %1, i64 noundef 0) #4
  call void @llvm.lifetime.start.p0(i64 40, ptr nonnull %4) #4
  call void @OSSL_PARAM_construct_end(ptr dead_on_unwind nonnull writable sret(%struct.ossl_param_st) align 8 %4) #4
  call void @llvm.memcpy.p0.p0.i64(ptr noundef nonnull align 8 dereferenceable(40) %15, ptr noundef nonnull align 8 dereferenceable(40) %4, i64 40, i1 false), !tbaa.struct !22
  call void @llvm.lifetime.end.p0(i64 40, ptr nonnull %4) #4
  %16 = call i32 @EVP_PKEY_CTX_set_params(ptr noundef nonnull %0, ptr noundef nonnull %3) #4
  br label %dsa_paramgen_check.exit.thread

dsa_paramgen_check.exit.thread:                   ; preds = %13, %9, %dsa_paramgen_check.exit
  %.0 = phi i32 [ %16, %dsa_paramgen_check.exit ], [ -1, %13 ], [ -2, %9 ]
  call void @llvm.lifetime.end.p0(i64 80, ptr nonnull %3) #4
  ret i32 %.0
}